

Microchip Technology PIC18 LITE Macro Assembler V1.34 build -361300703 
                                                                                               Sun Mar 08 15:22:34 2015

Microchip Technology Omniscient Code Generator (Lite mode) build 201502162209
     1                           	processor	18F4620
     2                           	fnconf	rparam,??,?,0
     3                           	opt	pw 120
     4                           	opt	lm
     5                           	psect	intcodelo,global,reloc=2,class=CODE,delta=1
     6                           	psect	cinit,global,reloc=2,class=CODE,delta=1
     7                           	psect	bssCOMRAM,global,class=COMRAM,space=1,delta=1
     8                           	psect	cstackCOMRAM,global,class=COMRAM,space=1,delta=1
     9                           	psect	text0,global,reloc=2,class=CODE,delta=1
    10                           	psect	text1,global,reloc=2,class=CODE,delta=1
    11                           	psect	text2,global,reloc=2,class=CODE,delta=1
    12                           	psect	intcode,global,reloc=2,class=CODE,delta=1
    13                           	psect	intcode_body,global,reloc=2,class=CODE,delta=1
    14                           	psect	intsave_regs,global,class=BIGRAM,space=1,delta=1
    15                           	psect	rparam,global,class=COMRAM,space=1,delta=1
    16  0000                     _LATD	set	3980
    17  0000                     _OSCTUNE	set	3995
    18  0000                     _TRISB	set	3987
    19  0000                     _TRISD	set	3989
    20  0000                     _ADCON0	set	4034
    21  0000                     _ADCON0bits	set	4034
    22  0000                     _ADCON1	set	4033
    23  0000                     _ADCON2	set	4032
    24  0000                     _ADRESH	set	4036
    25  0000                     _ADRESL	set	4035
    26  0000                     _OSCCON	set	4051
    27                           
    28 ;; *************** function _low_isr *****************
    29 ;; Defined at:
    30 ;;		line 67 in file "interrupts.c"
    31 ;; Parameters:    Size  Location     Type
    32 ;;		None
    33 ;; Auto vars:     Size  Location     Type
    34 ;;		None
    35 ;; Return value:  Size  Location     Type
    36 ;;		None               void
    37 ;; Registers used:
    38 ;;		None
    39 ;; Tracked objects:
    40 ;;		On entry : 0/0
    41 ;;		On exit  : 0/0
    42 ;;		Unchanged: 0/0
    43 ;; Data sizes:     COMRAM   BANK0   BANK1   BANK2   BANK3   BANK4   BANK5   BANK6   BANK7   BANK8   BANK9  BANK10  BANK1
      +1  BANK12  BANK13  BANK14  BANK15
    44 ;;      Params:         0       0       0       0       0       0       0       0       0       0       0       0       
      +0       0       0       0       0
    45 ;;      Locals:         0       0       0       0       0       0       0       0       0       0       0       0       
      +0       0       0       0       0
    46 ;;      Temps:         17       0       0       0       0       0       0       0       0       0       0       0       
      +0       0       0       0       0
    47 ;;      Totals:        17       0       0       0       0       0       0       0       0       0       0       0       
      +0       0       0       0       0
    48 ;;Total ram usage:       17 bytes
    49 ;; Hardware stack levels used:    1
    50 ;; Hardware stack levels required when called:    1
    51 ;; This function calls:
    52 ;;		Nothing
    53 ;; This function is called by:
    54 ;;		Interrupt level 1
    55 ;; This function uses a non-reentrant model
    56 ;;
    57                           
    58                           	psect	intcodelo
    59  000018                     __pintcodelo:
    60                           	opt stack 0
    61                           
    62                           ; #config settings
    63  000018                     _low_isr:
    64                           	opt stack 28
    65                           
    66                           ;incstack = 0
    67  000018  CFD8 F001          	movff	status,??_low_isr
    68  00001C  CFE8 F002          	movff	wreg,??_low_isr+1
    69  000020  CFE0 F003          	movff	bsr,??_low_isr+2
    70  000024  CFFA F004          	movff	pclath,??_low_isr+3
    71  000028  CFFB F005          	movff	pclatu,??_low_isr+4
    72  00002C  CFE9 F006          	movff	fsr0l,??_low_isr+5
    73  000030  CFEA F007          	movff	fsr0h,??_low_isr+6
    74  000034  CFE1 F008          	movff	fsr1l,??_low_isr+7
    75  000038  CFE2 F009          	movff	fsr1h,??_low_isr+8
    76  00003C  CFD9 F00A          	movff	fsr2l,??_low_isr+9
    77  000040  CFDA F00B          	movff	fsr2h,??_low_isr+10
    78  000044  CFF3 F00C          	movff	prodl,??_low_isr+11
    79  000048  CFF4 F00D          	movff	prodh,??_low_isr+12
    80  00004C  CFF6 F00E          	movff	tblptrl,??_low_isr+13
    81  000050  CFF7 F00F          	movff	tblptrh,??_low_isr+14
    82  000054  CFF8 F010          	movff	tblptru,??_low_isr+15
    83  000058  CFF5 F011          	movff	tablat,??_low_isr+16
    84  00005C  C011  FFF5         	movff	??_low_isr+16,tablat
    85  000060  C010  FFF8         	movff	??_low_isr+15,tblptru
    86  000064  C00F  FFF7         	movff	??_low_isr+14,tblptrh
    87  000068  C00E  FFF6         	movff	??_low_isr+13,tblptrl
    88  00006C  C00D  FFF4         	movff	??_low_isr+12,prodh
    89  000070  C00C  FFF3         	movff	??_low_isr+11,prodl
    90  000074  C00B  FFDA         	movff	??_low_isr+10,fsr2h
    91  000078  C00A  FFD9         	movff	??_low_isr+9,fsr2l
    92  00007C  C009  FFE2         	movff	??_low_isr+8,fsr1h
    93  000080  C008  FFE1         	movff	??_low_isr+7,fsr1l
    94  000084  C007  FFEA         	movff	??_low_isr+6,fsr0h
    95  000088  C006  FFE9         	movff	??_low_isr+5,fsr0l
    96  00008C  C005  FFFB         	movff	??_low_isr+4,pclatu
    97  000090  C004  FFFA         	movff	??_low_isr+3,pclath
    98  000094  C003  FFE0         	movff	??_low_isr+2,bsr
    99  000098  C002  FFE8         	movff	??_low_isr+1,wreg
   100  00009C  C001  FFD8         	movff	??_low_isr,status
   101  0000A0  0010               	retfie	
   102  0000A2                     __end_of_low_isr:
   103                           	opt stack 0
   104                           pclatu	equ	0xFFB
   105                           pclath	equ	0xFFA
   106                           tblptru	equ	0xFF8
   107                           tblptrh	equ	0xFF7
   108                           tblptrl	equ	0xFF6
   109                           tablat	equ	0xFF5
   110                           prodh	equ	0xFF4
   111                           prodl	equ	0xFF3
   112                           fsr0h	equ	0xFEA
   113                           fsr0l	equ	0xFE9
   114                           wreg	equ	0xFE8
   115                           fsr1h	equ	0xFE2
   116                           fsr1l	equ	0xFE1
   117                           bsr	equ	0xFE0
   118                           fsr2h	equ	0xFDA
   119                           fsr2l	equ	0xFD9
   120                           status	equ	0xFD8
   121                           
   122                           	psect	cinit
   123  00017E                     __pcinit:
   124                           	opt stack 0
   125  00017E                     start_initialization:
   126                           	opt stack 0
   127  00017E                     __initialization:
   128                           	opt stack 0
   129                           
   130                           ; Clear objects allocated to COMRAM (4 bytes)
   131  00017E  6A27               	clrf	(__pbssCOMRAM+3)& (0+255),c
   132  000180  6A26               	clrf	(__pbssCOMRAM+2)& (0+255),c
   133  000182  6A25               	clrf	(__pbssCOMRAM+1)& (0+255),c
   134  000184  6A24               	clrf	__pbssCOMRAM& (0+255),c
   135  000186                     end_of_initialization:
   136                           	opt stack 0
   137  000186                     __end_of__initialization:
   138                           	opt stack 0
   139  000186  0100               	movlb	0
   140  000188  EF53  F000         	goto	_main	;jump to C main() function
   141                           pclatu	equ	0xFFB
   142                           pclath	equ	0xFFA
   143                           tblptru	equ	0xFF8
   144                           tblptrh	equ	0xFF7
   145                           tblptrl	equ	0xFF6
   146                           tablat	equ	0xFF5
   147                           prodh	equ	0xFF4
   148                           prodl	equ	0xFF3
   149                           fsr0h	equ	0xFEA
   150                           fsr0l	equ	0xFE9
   151                           wreg	equ	0xFE8
   152                           fsr1h	equ	0xFE2
   153                           fsr1l	equ	0xFE1
   154                           bsr	equ	0xFE0
   155                           fsr2h	equ	0xFDA
   156                           fsr2l	equ	0xFD9
   157                           status	equ	0xFD8
   158                           
   159                           	psect	bssCOMRAM
   160  000024                     __pbssCOMRAM:
   161                           	opt stack 0
   162  000024                     _delay_time:
   163                           	opt stack 0
   164  000024                     	ds	2
   165  000026                     _sensor:
   166                           	opt stack 0
   167  000026                     	ds	2
   168                           pclatu	equ	0xFFB
   169                           pclath	equ	0xFFA
   170                           tblptru	equ	0xFF8
   171                           tblptrh	equ	0xFF7
   172                           tblptrl	equ	0xFF6
   173                           tablat	equ	0xFF5
   174                           prodh	equ	0xFF4
   175                           prodl	equ	0xFF3
   176                           fsr0h	equ	0xFEA
   177                           fsr0l	equ	0xFE9
   178                           wreg	equ	0xFE8
   179                           fsr1h	equ	0xFE2
   180                           fsr1l	equ	0xFE1
   181                           bsr	equ	0xFE0
   182                           fsr2h	equ	0xFDA
   183                           fsr2l	equ	0xFD9
   184                           status	equ	0xFD8
   185                           
   186                           	psect	cstackCOMRAM
   187  000001                     __pcstackCOMRAM:
   188                           	opt stack 0
   189  000001                     ??_low_isr:
   190  000001                     
   191                           ; 0 bytes @ 0x0
   192  000001                     	ds	17
   193  000012                     ??_high_isr:
   194                           
   195                           ; 0 bytes @ 0x11
   196  000012                     	ds	14
   197  000020                     ??_main:
   198                           
   199                           ; 0 bytes @ 0x1F
   200  000020                     	ds	4
   201                           pclatu	equ	0xFFB
   202                           pclath	equ	0xFFA
   203                           tblptru	equ	0xFF8
   204                           tblptrh	equ	0xFF7
   205                           tblptrl	equ	0xFF6
   206                           tablat	equ	0xFF5
   207                           prodh	equ	0xFF4
   208                           prodl	equ	0xFF3
   209                           fsr0h	equ	0xFEA
   210                           fsr0l	equ	0xFE9
   211                           wreg	equ	0xFE8
   212                           fsr1h	equ	0xFE2
   213                           fsr1l	equ	0xFE1
   214                           bsr	equ	0xFE0
   215                           fsr2h	equ	0xFDA
   216                           fsr2l	equ	0xFD9
   217                           status	equ	0xFD8
   218                           
   219 ;;
   220 ;;Main: autosize = 0, tempsize = 4, incstack = 0, save=0
   221 ;;
   222 ;; *************** function _main *****************
   223 ;; Defined at:
   224 ;;		line 47 in file "main.c"
   225 ;; Parameters:    Size  Location     Type
   226 ;;		None
   227 ;; Auto vars:     Size  Location     Type
   228 ;;		None
   229 ;; Return value:  Size  Location     Type
   230 ;;		None               void
   231 ;; Registers used:
   232 ;;		wreg, status,2, status,0, cstack
   233 ;; Tracked objects:
   234 ;;		On entry : 0/0
   235 ;;		On exit  : 0/0
   236 ;;		Unchanged: 0/0
   237 ;; Data sizes:     COMRAM   BANK0   BANK1   BANK2   BANK3   BANK4   BANK5   BANK6   BANK7   BANK8   BANK9  BANK10  BANK1
      +1  BANK12  BANK13  BANK14  BANK15
   238 ;;      Params:         0       0       0       0       0       0       0       0       0       0       0       0       
      +0       0       0       0       0
   239 ;;      Locals:         0       0       0       0       0       0       0       0       0       0       0       0       
      +0       0       0       0       0
   240 ;;      Temps:          4       0       0       0       0       0       0       0       0       0       0       0       
      +0       0       0       0       0
   241 ;;      Totals:         4       0       0       0       0       0       0       0       0       0       0       0       
      +0       0       0       0       0
   242 ;;Total ram usage:        4 bytes
   243 ;; Hardware stack levels required when called:    3
   244 ;; This function calls:
   245 ;;		_ConfigureOscillator
   246 ;;		_InitApp
   247 ;; This function is called by:
   248 ;;		Startup code after reset
   249 ;; This function uses a non-reentrant model
   250 ;;
   251                           
   252                           	psect	text0
   253  0000A6                     __ptext0:
   254                           	opt stack 0
   255  0000A6                     _main:
   256                           	opt stack 28
   257                           
   258                           ;main.c: 50: OSCCON = 0b01111100;
   259                           
   260                           ;incstack = 0
   261  0000A6  0E7C               	movlw	124
   262  0000A8  6ED3               	movwf	4051,c	;volatile
   263                           
   264                           ;main.c: 52: OSCTUNE = 0b01001111;
   265  0000AA  0E4F               	movlw	79
   266  0000AC  6E9B               	movwf	3995,c	;volatile
   267                           
   268                           ;main.c: 55: ConfigureOscillator();
   269  0000AE  ECC7  F000         	call	_ConfigureOscillator	;wreg free
   270                           
   271                           ;main.c: 58: InitApp();
   272  0000B2  ECC6  F000         	call	_InitApp	;wreg free
   273                           
   274                           ;main.c: 60: TRISB=2;
   275  0000B6  0E02               	movlw	2
   276  0000B8  6E93               	movwf	3987,c	;volatile
   277                           
   278                           ;main.c: 61: TRISD=0;
   279  0000BA  0E00               	movlw	0
   280  0000BC  6E95               	movwf	3989,c	;volatile
   281                           
   282                           ;main.c: 62: ADCON1 =1;
   283  0000BE  0E01               	movlw	1
   284  0000C0  6EC1               	movwf	4033,c	;volatile
   285                           
   286                           ;main.c: 63: ADCON2=0b00001010;
   287  0000C2  0E0A               	movlw	10
   288  0000C4  6EC0               	movwf	4032,c	;volatile
   289                           
   290                           ;main.c: 64: ADCON0=0b00101011;
   291  0000C6  0E2B               	movlw	43
   292  0000C8  6EC2               	movwf	4034,c	;volatile
   293  0000CA  D000               	goto	l655
   294  0000CC                     l655:
   295                           
   296                           ;main.c: 67: {
   297                           ;main.c: 69: ADCON0bits.GO_DONE = 1;
   298  0000CC  82C2               	bsf	4034,1,c	;volatile
   299                           
   300                           ;main.c: 70: while(ADCON0bits.GO_DONE != 0);
   301  0000CE  D000               	goto	l48
   302  0000D0                     l48:
   303  0000D0  B2C2               	btfsc	4034,1,c	;volatile
   304  0000D2  D7FE               	goto	l48
   305                           
   306                           ;main.c: 71: sensor = (ADRESH << 2) + (ADRESL >> 6);
   307  0000D4  CFC3 F020          	movff	4035,??_main	;volatile
   308  0000D8  0E06               	movlw	6
   309  0000DA  6E21               	movwf	(??_main+1)& (0+255),c
   310  0000DC                     u35:
   311  0000DC  90D8               	bcf	status,0,c
   312  0000DE  3220               	rrcf	??_main,f,c
   313  0000E0  2E21               	decfsz	(??_main+1)& (0+255),f,c
   314  0000E2  D7FC               	goto	u35
   315  0000E4  50C4               	movf	4036,w,c	;volatile
   316  0000E6  6E22               	movwf	(??_main+2)& (0+255),c
   317  0000E8  6A23               	clrf	(??_main+3)& (0+255),c
   318  0000EA  90D8               	bcf	status,0,c
   319  0000EC  3622               	rlcf	??_main+2,f,c
   320  0000EE  3623               	rlcf	??_main+3,f,c
   321  0000F0  90D8               	bcf	status,0,c
   322  0000F2  3622               	rlcf	??_main+2,f,c
   323  0000F4  3623               	rlcf	??_main+3,f,c
   324  0000F6  5020               	movf	??_main,w,c
   325  0000F8  2422               	addwf	??_main+2,w,c
   326  0000FA  6E26               	movwf	_sensor,c
   327  0000FC  0E00               	movlw	0
   328  0000FE  2023               	addwfc	??_main+3,w,c
   329  000100  6E27               	movwf	_sensor+1,c
   330                           
   331                           ;main.c: 74: if(ADRESL > 100)
   332  000102  0E64               	movlw	100
   333  000104  64C3               	cpfsgt	4035,c	;volatile
   334  000106  D002               	goto	l661
   335                           
   336                           ;main.c: 75: LATD=1;
   337  000108  0E01               	movlw	1
   338  00010A  D001               	goto	L1
   339  00010C                     l661:
   340                           
   341                           ;main.c: 76: else
   342                           ;main.c: 77: LATD=0;
   343  00010C  0E00               	movlw	0
   344  00010E                     L1:
   345  00010E  6E8C               	movwf	3980,c	;volatile
   346  000110  D7DD               	goto	l655
   347  000112  EF51  F000         	goto	start
   348  000116                     __end_of_main:
   349                           	opt stack 0
   350                           pclatu	equ	0xFFB
   351                           pclath	equ	0xFFA
   352                           tblptru	equ	0xFF8
   353                           tblptrh	equ	0xFF7
   354                           tblptrl	equ	0xFF6
   355                           tablat	equ	0xFF5
   356                           prodh	equ	0xFF4
   357                           prodl	equ	0xFF3
   358                           fsr0h	equ	0xFEA
   359                           fsr0l	equ	0xFE9
   360                           wreg	equ	0xFE8
   361                           fsr1h	equ	0xFE2
   362                           fsr1l	equ	0xFE1
   363                           bsr	equ	0xFE0
   364                           fsr2h	equ	0xFDA
   365                           fsr2l	equ	0xFD9
   366                           status	equ	0xFD8
   367                           
   368 ;; *************** function _InitApp *****************
   369 ;; Defined at:
   370 ;;		line 28 in file "user.c"
   371 ;; Parameters:    Size  Location     Type
   372 ;;		None
   373 ;; Auto vars:     Size  Location     Type
   374 ;;		None
   375 ;; Return value:  Size  Location     Type
   376 ;;		None               void
   377 ;; Registers used:
   378 ;;		None
   379 ;; Tracked objects:
   380 ;;		On entry : 0/0
   381 ;;		On exit  : 0/0
   382 ;;		Unchanged: 0/0
   383 ;; Data sizes:     COMRAM   BANK0   BANK1   BANK2   BANK3   BANK4   BANK5   BANK6   BANK7   BANK8   BANK9  BANK10  BANK1
      +1  BANK12  BANK13  BANK14  BANK15
   384 ;;      Params:         0       0       0       0       0       0       0       0       0       0       0       0       
      +0       0       0       0       0
   385 ;;      Locals:         0       0       0       0       0       0       0       0       0       0       0       0       
      +0       0       0       0       0
   386 ;;      Temps:          0       0       0       0       0       0       0       0       0       0       0       0       
      +0       0       0       0       0
   387 ;;      Totals:         0       0       0       0       0       0       0       0       0       0       0       0       
      +0       0       0       0       0
   388 ;;Total ram usage:        0 bytes
   389 ;; Hardware stack levels used:    1
   390 ;; Hardware stack levels required when called:    2
   391 ;; This function calls:
   392 ;;		Nothing
   393 ;; This function is called by:
   394 ;;		_main
   395 ;; This function uses a non-reentrant model
   396 ;;
   397                           
   398                           	psect	text1
   399  00018C                     __ptext1:
   400                           	opt stack 0
   401  00018C                     _InitApp:
   402                           	opt stack 28
   403                           
   404                           ;incstack = 0
   405  00018C  0012               	return		;funcret
   406  00018E                     __end_of_InitApp:
   407                           	opt stack 0
   408                           pclatu	equ	0xFFB
   409                           pclath	equ	0xFFA
   410                           tblptru	equ	0xFF8
   411                           tblptrh	equ	0xFF7
   412                           tblptrl	equ	0xFF6
   413                           tablat	equ	0xFF5
   414                           prodh	equ	0xFF4
   415                           prodl	equ	0xFF3
   416                           fsr0h	equ	0xFEA
   417                           fsr0l	equ	0xFE9
   418                           wreg	equ	0xFE8
   419                           fsr1h	equ	0xFE2
   420                           fsr1l	equ	0xFE1
   421                           bsr	equ	0xFE0
   422                           fsr2h	equ	0xFDA
   423                           fsr2l	equ	0xFD9
   424                           status	equ	0xFD8
   425                           
   426 ;; *************** function _ConfigureOscillator *****************
   427 ;; Defined at:
   428 ;;		line 24 in file "system.c"
   429 ;; Parameters:    Size  Location     Type
   430 ;;		None
   431 ;; Auto vars:     Size  Location     Type
   432 ;;		None
   433 ;; Return value:  Size  Location     Type
   434 ;;		None               void
   435 ;; Registers used:
   436 ;;		None
   437 ;; Tracked objects:
   438 ;;		On entry : 0/0
   439 ;;		On exit  : 0/0
   440 ;;		Unchanged: 0/0
   441 ;; Data sizes:     COMRAM   BANK0   BANK1   BANK2   BANK3   BANK4   BANK5   BANK6   BANK7   BANK8   BANK9  BANK10  BANK1
      +1  BANK12  BANK13  BANK14  BANK15
   442 ;;      Params:         0       0       0       0       0       0       0       0       0       0       0       0       
      +0       0       0       0       0
   443 ;;      Locals:         0       0       0       0       0       0       0       0       0       0       0       0       
      +0       0       0       0       0
   444 ;;      Temps:          0       0       0       0       0       0       0       0       0       0       0       0       
      +0       0       0       0       0
   445 ;;      Totals:         0       0       0       0       0       0       0       0       0       0       0       0       
      +0       0       0       0       0
   446 ;;Total ram usage:        0 bytes
   447 ;; Hardware stack levels used:    1
   448 ;; Hardware stack levels required when called:    2
   449 ;; This function calls:
   450 ;;		Nothing
   451 ;; This function is called by:
   452 ;;		_main
   453 ;; This function uses a non-reentrant model
   454 ;;
   455                           
   456                           	psect	text2
   457  00018E                     __ptext2:
   458                           	opt stack 0
   459  00018E                     _ConfigureOscillator:
   460                           	opt stack 28
   461                           
   462                           ;incstack = 0
   463  00018E  0012               	return		;funcret
   464  000190                     __end_of_ConfigureOscillator:
   465                           	opt stack 0
   466                           pclatu	equ	0xFFB
   467                           pclath	equ	0xFFA
   468                           tblptru	equ	0xFF8
   469                           tblptrh	equ	0xFF7
   470                           tblptrl	equ	0xFF6
   471                           tablat	equ	0xFF5
   472                           prodh	equ	0xFF4
   473                           prodl	equ	0xFF3
   474                           fsr0h	equ	0xFEA
   475                           fsr0l	equ	0xFE9
   476                           wreg	equ	0xFE8
   477                           fsr1h	equ	0xFE2
   478                           fsr1l	equ	0xFE1
   479                           bsr	equ	0xFE0
   480                           fsr2h	equ	0xFDA
   481                           fsr2l	equ	0xFD9
   482                           status	equ	0xFD8
   483                           
   484 ;; *************** function _high_isr *****************
   485 ;; Defined at:
   486 ;;		line 27 in file "interrupts.c"
   487 ;; Parameters:    Size  Location     Type
   488 ;;		None
   489 ;; Auto vars:     Size  Location     Type
   490 ;;		None
   491 ;; Return value:  Size  Location     Type
   492 ;;		None               void
   493 ;; Registers used:
   494 ;;		None
   495 ;; Tracked objects:
   496 ;;		On entry : 0/0
   497 ;;		On exit  : 0/0
   498 ;;		Unchanged: 0/0
   499 ;; Data sizes:     COMRAM   BANK0   BANK1   BANK2   BANK3   BANK4   BANK5   BANK6   BANK7   BANK8   BANK9  BANK10  BANK1
      +1  BANK12  BANK13  BANK14  BANK15
   500 ;;      Params:         0       0       0       0       0       0       0       0       0       0       0       0       
      +0       0       0       0       0
   501 ;;      Locals:         0       0       0       0       0       0       0       0       0       0       0       0       
      +0       0       0       0       0
   502 ;;      Temps:         14       0       0       0       0       0       0       0       0       0       0       0       
      +0       0       0       0       0
   503 ;;      Totals:        14       0       0       0       0       0       0       0       0       0       0       0       
      +0       0       0       0       0
   504 ;;Total ram usage:       14 bytes
   505 ;; Hardware stack levels used:    1
   506 ;; This function calls:
   507 ;;		Nothing
   508 ;; This function is called by:
   509 ;;		Interrupt level 2
   510 ;; This function uses a non-reentrant model
   511 ;;
   512                           
   513                           	psect	intcode
   514  000008                     __pintcode:
   515                           	opt stack 0
   516  000008                     _high_isr:
   517                           	opt stack 28
   518                           
   519                           ;incstack = 0
   520  000008  CFFA F012          	movff	pclath,??_high_isr
   521  00000C  CFFB F013          	movff	pclatu,??_high_isr+1
   522  000010  CFE9 F014          	movff	fsr0l,??_high_isr+2
   523  000014  ED8B  F000         	call	int_func,f	;refresh shadow registers
   524                           pclatu	equ	0xFFB
   525                           pclath	equ	0xFFA
   526                           tblptru	equ	0xFF8
   527                           tblptrh	equ	0xFF7
   528                           tblptrl	equ	0xFF6
   529                           tablat	equ	0xFF5
   530                           prodh	equ	0xFF4
   531                           prodl	equ	0xFF3
   532                           fsr0h	equ	0xFEA
   533                           fsr0l	equ	0xFE9
   534                           wreg	equ	0xFE8
   535                           fsr1h	equ	0xFE2
   536                           fsr1l	equ	0xFE1
   537                           bsr	equ	0xFE0
   538                           fsr2h	equ	0xFDA
   539                           fsr2l	equ	0xFD9
   540                           status	equ	0xFD8
   541                           
   542                           	psect	intcode_body
   543  000116                     __pintcode_body:
   544                           	opt stack 28
   545  000116                     int_func:
   546                           	opt stack 28
   547  000116  0006               	pop		; remove dummy address from shadow register refresh
   548  000118  CFEA F015          	movff	fsr0h,??_high_isr+3
   549  00011C  CFE1 F016          	movff	fsr1l,??_high_isr+4
   550  000120  CFE2 F017          	movff	fsr1h,??_high_isr+5
   551  000124  CFD9 F018          	movff	fsr2l,??_high_isr+6
   552  000128  CFDA F019          	movff	fsr2h,??_high_isr+7
   553  00012C  CFF3 F01A          	movff	prodl,??_high_isr+8
   554  000130  CFF4 F01B          	movff	prodh,??_high_isr+9
   555  000134  CFF6 F01C          	movff	tblptrl,??_high_isr+10
   556  000138  CFF7 F01D          	movff	tblptrh,??_high_isr+11
   557  00013C  CFF8 F01E          	movff	tblptru,??_high_isr+12
   558  000140  CFF5 F01F          	movff	tablat,??_high_isr+13
   559  000144  C01F  FFF5         	movff	??_high_isr+13,tablat
   560  000148  C01E  FFF8         	movff	??_high_isr+12,tblptru
   561  00014C  C01D  FFF7         	movff	??_high_isr+11,tblptrh
   562  000150  C01C  FFF6         	movff	??_high_isr+10,tblptrl
   563  000154  C01B  FFF4         	movff	??_high_isr+9,prodh
   564  000158  C01A  FFF3         	movff	??_high_isr+8,prodl
   565  00015C  C019  FFDA         	movff	??_high_isr+7,fsr2h
   566  000160  C018  FFD9         	movff	??_high_isr+6,fsr2l
   567  000164  C017  FFE2         	movff	??_high_isr+5,fsr1h
   568  000168  C016  FFE1         	movff	??_high_isr+4,fsr1l
   569  00016C  C015  FFEA         	movff	??_high_isr+3,fsr0h
   570  000170  C014  FFE9         	movff	??_high_isr+2,fsr0l
   571  000174  C013  FFFB         	movff	??_high_isr+1,pclatu
   572  000178  C012  FFFA         	movff	??_high_isr,pclath
   573  00017C  0011               	retfie		f
   574  00017E                     __end_of_high_isr:
   575                           	opt stack 0
   576  0000                     pclatu	equ	0xFFB
   577                           pclath	equ	0xFFA
   578                           tblptru	equ	0xFF8
   579                           tblptrh	equ	0xFF7
   580                           tblptrl	equ	0xFF6
   581                           tablat	equ	0xFF5
   582                           prodh	equ	0xFF4
   583                           prodl	equ	0xFF3
   584                           fsr0h	equ	0xFEA
   585                           fsr0l	equ	0xFE9
   586                           wreg	equ	0xFE8
   587                           fsr1h	equ	0xFE2
   588                           fsr1l	equ	0xFE1
   589                           bsr	equ	0xFE0
   590                           fsr2h	equ	0xFDA
   591                           fsr2l	equ	0xFD9
   592                           status	equ	0xFD8
   593                           pclatu	equ	0xFFB
   594                           pclath	equ	0xFFA
   595                           tblptru	equ	0xFF8
   596                           tblptrh	equ	0xFF7
   597                           tblptrl	equ	0xFF6
   598                           tablat	equ	0xFF5
   599                           prodh	equ	0xFF4
   600                           prodl	equ	0xFF3
   601                           fsr0h	equ	0xFEA
   602                           fsr0l	equ	0xFE9
   603                           wreg	equ	0xFE8
   604                           fsr1h	equ	0xFE2
   605                           fsr1l	equ	0xFE1
   606                           bsr	equ	0xFE0
   607                           fsr2h	equ	0xFDA
   608                           fsr2l	equ	0xFD9
   609                           status	equ	0xFD8
   610                           
   611                           	psect	rparam
   612  0000                     pclatu	equ	0xFFB
   613                           pclath	equ	0xFFA
   614                           tblptru	equ	0xFF8
   615                           tblptrh	equ	0xFF7
   616                           tblptrl	equ	0xFF6
   617                           tablat	equ	0xFF5
   618                           prodh	equ	0xFF4
   619                           prodl	equ	0xFF3
   620                           fsr0h	equ	0xFEA
   621                           fsr0l	equ	0xFE9
   622                           wreg	equ	0xFE8
   623                           fsr1h	equ	0xFE2
   624                           fsr1l	equ	0xFE1
   625                           bsr	equ	0xFE0
   626                           fsr2h	equ	0xFDA
   627                           fsr2l	equ	0xFD9
   628                           status	equ	0xFD8


Data Sizes:
    Strings     0
    Constant    0
    Data        0
    BSS         4
    Persistent  0
    Stack       0

Auto Spaces:
    Space          Size  Autos    Used
    COMRAM          127     35      39
    BANK0           128      0       0
    BANK1           256      0       0
    BANK2           256      0       0
    BANK3           256      0       0
    BANK4           256      0       0
    BANK5           256      0       0
    BANK6           256      0       0
    BANK7           256      0       0
    BANK8           256      0       0
    BANK9           256      0       0
    BANK10          256      0       0
    BANK11          256      0       0
    BANK12          256      0       0
    BANK13          256      0       0
    BANK14          239      0       0
    BANK15          128      0       0

Pointer List with Targets:

    None.

Critical Paths under _main in COMRAM

    None.

Critical Paths under _high_isr in COMRAM

    None.

Critical Paths under _low_isr in COMRAM

    None.

Critical Paths under _main in BANK0

    None.

Critical Paths under _high_isr in BANK0

    None.

Critical Paths under _low_isr in BANK0

    None.

Critical Paths under _main in BANK1

    None.

Critical Paths under _high_isr in BANK1

    None.

Critical Paths under _low_isr in BANK1

    None.

Critical Paths under _main in BANK2

    None.

Critical Paths under _high_isr in BANK2

    None.

Critical Paths under _low_isr in BANK2

    None.

Critical Paths under _main in BANK3

    None.

Critical Paths under _high_isr in BANK3

    None.

Critical Paths under _low_isr in BANK3

    None.

Critical Paths under _main in BANK4

    None.

Critical Paths under _high_isr in BANK4

    None.

Critical Paths under _low_isr in BANK4

    None.

Critical Paths under _main in BANK5

    None.

Critical Paths under _high_isr in BANK5

    None.

Critical Paths under _low_isr in BANK5

    None.

Critical Paths under _main in BANK6

    None.

Critical Paths under _high_isr in BANK6

    None.

Critical Paths under _low_isr in BANK6

    None.

Critical Paths under _main in BANK7

    None.

Critical Paths under _high_isr in BANK7

    None.

Critical Paths under _low_isr in BANK7

    None.

Critical Paths under _main in BANK8

    None.

Critical Paths under _high_isr in BANK8

    None.

Critical Paths under _low_isr in BANK8

    None.

Critical Paths under _main in BANK9

    None.

Critical Paths under _high_isr in BANK9

    None.

Critical Paths under _low_isr in BANK9

    None.

Critical Paths under _main in BANK10

    None.

Critical Paths under _high_isr in BANK10

    None.

Critical Paths under _low_isr in BANK10

    None.

Critical Paths under _main in BANK11

    None.

Critical Paths under _high_isr in BANK11

    None.

Critical Paths under _low_isr in BANK11

    None.

Critical Paths under _main in BANK12

    None.

Critical Paths under _high_isr in BANK12

    None.

Critical Paths under _low_isr in BANK12

    None.

Critical Paths under _main in BANK13

    None.

Critical Paths under _high_isr in BANK13

    None.

Critical Paths under _low_isr in BANK13

    None.

Critical Paths under _main in BANK14

    None.

Critical Paths under _high_isr in BANK14

    None.

Critical Paths under _low_isr in BANK14

    None.

Critical Paths under _main in BANK15

    None.

Critical Paths under _high_isr in BANK15

    None.

Critical Paths under _low_isr in BANK15

    None.

Call Graph Tables:

 ---------------------------------------------------------------------------------
 (Depth) Function   	        Calls       Base Space   Used Autos Params    Refs
 ---------------------------------------------------------------------------------
 (0) _main                                                 4     4      0       0
                                             31 COMRAM     4     4      0
                _ConfigureOscillator
                            _InitApp
 ---------------------------------------------------------------------------------
 (1) _InitApp                                              0     0      0       0
 ---------------------------------------------------------------------------------
 (1) _ConfigureOscillator                                  0     0      0       0
 ---------------------------------------------------------------------------------
 Estimated maximum stack depth 1
 ---------------------------------------------------------------------------------
 (Depth) Function   	        Calls       Base Space   Used Autos Params    Refs
 ---------------------------------------------------------------------------------
 (2) _low_isr                                             17    17      0       0
                                              0 COMRAM    17    17      0
 ---------------------------------------------------------------------------------
 Estimated maximum stack depth 2
 ---------------------------------------------------------------------------------
 (Depth) Function   	        Calls       Base Space   Used Autos Params    Refs
 ---------------------------------------------------------------------------------
 (3) _high_isr                                            14    14      0       0
                                             17 COMRAM    14    14      0
 ---------------------------------------------------------------------------------
 Estimated maximum stack depth 3
 ---------------------------------------------------------------------------------

 Call Graph Graphs:

 _main (ROOT)
   _ConfigureOscillator
   _InitApp

 _low_isr (ROOT)

 _high_isr (ROOT)

 Address spaces:
Name               Size   Autos  Total    Cost      Usage
BIGRAM             EEE      0       0      38        0.0%
EEDATA             400      0       0       0        0.0%
BITBANK13          100      0       0      31        0.0%
BANK13             100      0       0      32        0.0%
BITBANK12          100      0       0      29        0.0%
BANK12             100      0       0      30        0.0%
BITBANK11          100      0       0      27        0.0%
BANK11             100      0       0      28        0.0%
BITBANK10          100      0       0      25        0.0%
BANK10             100      0       0      26        0.0%
BITBANK9           100      0       0      23        0.0%
BANK9              100      0       0      24        0.0%
BITBANK8           100      0       0      21        0.0%
BANK8              100      0       0      22        0.0%
BITBANK7           100      0       0      19        0.0%
BANK7              100      0       0      20        0.0%
BITBANK6           100      0       0      17        0.0%
BANK6              100      0       0      18        0.0%
BITBANK5           100      0       0      15        0.0%
BANK5              100      0       0      16        0.0%
BITBANK4           100      0       0      13        0.0%
BANK4              100      0       0      14        0.0%
BITBANK3           100      0       0      11        0.0%
BANK3              100      0       0      12        0.0%
BITBANK2           100      0       0       9        0.0%
BANK2              100      0       0      10        0.0%
BITBANK1           100      0       0       7        0.0%
BANK1              100      0       0       8        0.0%
BITBANK14           EF      0       0      33        0.0%
BANK14              EF      0       0      34        0.0%
BITBANK15           80      0       0      35        0.0%
BANK15              80      0       0      36        0.0%
BITBANK0            80      0       0       4        0.0%
BANK0               80      0       0       5        0.0%
BIGRAM_1            80      0       0      37        0.0%
BITCOMRAM           7F      0       0       0        0.0%
COMRAM              7F     23      27       1       30.7%
BITSFR_5             0      0       0      40        0.0%
SFR_5                0      0       0      40        0.0%
BITSFR_4             0      0       0      40        0.0%
SFR_4                0      0       0      40        0.0%
BITSFR_3             0      0       0      40        0.0%
SFR_3                0      0       0      40        0.0%
BITSFR_2             0      0       0      40        0.0%
SFR_2                0      0       0      40        0.0%
BITSFR_1             0      0       0      40        0.0%
SFR_1                0      0       0      40        0.0%
BITSFR               0      0       0      40        0.0%
SFR                  0      0       0      40        0.0%
STACK                0      0       0       2        0.0%
NULL                 0      0       0       0        0.0%
ABS                  0      0      27       6        0.0%
DATA                 0      0      27       3        0.0%
CODE                 0      0       0       0        0.0%


Microchip Technology PIC18 Macro Assembler V1.34 build -361300703 
Symbol Table                                                                                   Sun Mar 08 15:22:34 2015

                          l48 00D0                            u35 00DC                            bsr 000FE0  
                 __CFG_BORV$3 000000                  __CFG_CP0$OFF 000000                  __CFG_CP1$OFF 000000  
                __CFG_CP2$OFF 000000                  __CFG_CP3$OFF 000000                   __CFG_LVP$ON 000000  
                         l661 010C                           l655 00CC                  __CFG_CPB$OFF 000000  
                __CFG_CPD$OFF 000000                           wreg 000FE8                  __CFG_WDT$OFF 000000  
                        _LATD 000F8C                          _main 00A6                          fsr0h 000FEA  
                        fsr1h 000FE2                          fsr0l 000FE9                          fsr2h 000FDA  
                        fsr1l 000FE1                          fsr2l 000FD9                          pclat 000FFA  
                        prodh 000FF4                          prodl 000FF3                          start 00A2  
               __CFG_IESO$OFF 000000                 __CFG_MCLRE$ON 000000                  ___param_bank 000010  
             __end_of_InitApp 018E                         ?_main 0001                         _TRISB 000F93  
                       _TRISD 000F95           _ConfigureOscillator 018E                 __CFG_PWRT$OFF 000000  
               __CFG_WRT0$OFF 000000                 __CFG_WRT1$OFF 000000                 __CFG_WRT2$OFF 000000  
               __CFG_WRT3$OFF 000000                __CFG_EBTR0$OFF 000000                __CFG_FCMEN$OFF 000000  
              __CFG_EBTR1$OFF 000000                __CFG_EBTR2$OFF 000000                __CFG_EBTR3$OFF 000000  
               __CFG_WRTB$OFF 000000                 __CFG_WRTC$OFF 000000                 __CFG_WRTD$OFF 000000  
              __CFG_EBTRB$OFF 000000               __end_of_low_isr 00A2                         tablat 000FF5  
                       status 000FD8          ?_ConfigureOscillator 0001               __initialization 017E  
                __end_of_main 0116                        ??_main 0020                 __activetblptr 000000  
                      _ADCON0 000FC2                        _ADCON1 000FC1                        _ADCON2 000FC0  
                      _ADRESH 000FC4                        _ADRESL 000FC3                        _OSCCON 000FD3  
                   ??_InitApp 0020         ??_ConfigureOscillator 0020                __CFG_XINST$OFF 000000  
            __end_of_high_isr 017E                __CFG_STVREN$ON 000000                        _sensor 0026  
                   ??_low_isr 0001                        tblptrh 000FF7                        tblptrl 000FF6  
                      tblptru 000FF8                    __accesstop 0080       __end_of__initialization 0186  
             __CFG_PBADEN$OFF 000000                 ___rparam_used 000001                __pcstackCOMRAM 0001  
                  _delay_time 0024                       _OSCTUNE 000F9B                     ?_high_isr 0001  
                     _InitApp 018C                       __Hparam 0000                       __Lparam 0000  
                     __pcinit 017E                       __ramtop 1000                       __ptext0 00A6  
                     __ptext1 018C                       __ptext2 018E                       _low_isr 0018  
                  ??_high_isr 0012                __pintcode_body 0116          end_of_initialization 0186  
                     int_func 0116   __end_of_ConfigureOscillator 0190           start_initialization 017E  
            __CFG_OSC$INTIO67 000000              __CFG_LPT1OSC$OFF 000000                   __pbssCOMRAM 0024  
           __size_of_high_isr 0176                      ?_InitApp 0001             __CFG_CCP2MX$PORTC 000000  
                   __pintcode 0008                   __pintcodelo 0018                      ?_low_isr 0001  
            __CFG_WDTPS$32768 000000                    _ADCON0bits 000FC2              __size_of_InitApp 0002  
                    __Hrparam 0000                      __Lrparam 0000            __CFG_BOREN$SBORDIS 000000  
            __size_of_low_isr 008A                      _high_isr 0008                 __size_of_main 0070  
__size_of_ConfigureOscillator 0002                      intlevel1 0000                      intlevel2 0000  
